; Function Attrs: mustprogress uwtable
define noundef i32 @_ZNK7Imf_3_222DeepScanLineOutputFile15currentScanLineEv(ptr nocapture noundef nonnull readonly align 8 dereferenceable(16) %this) local_unnamed_addr #3 align 2 personality ptr @__gxx_personality_v0 {
entry:
  %_data = getelementptr inbounds i8, ptr %this, i64 8
  %0 = load ptr, ptr %_data, align 8
  %_streamData = getelementptr inbounds i8, ptr %0, i64 368
  %1 = load ptr, ptr %_streamData, align 8
  %call1.i.i.i = tail call noundef i32 @pthread_mutex_lock(ptr noundef nonnull %1) #20
  %tobool.not.i.i = icmp eq i32 %call1.i.i.i, 0
  br i1 %tobool.not.i.i, label %_ZNSt10lock_guardISt5mutexEC2ERS0_.exit, label %if.then.i.i

if.then.i.i:                                      ; preds = %entry
  tail call void @_ZSt20__throw_system_errori(i32 noundef %call1.i.i.i) #24
  unreachable

_ZNSt10lock_guardISt5mutexEC2ERS0_.exit:          ; preds = %entry
  %2 = load ptr, ptr %_data, align 8
  %currentScanLine = getelementptr inbounds i8, ptr %2, i64 176
  %3 = load i32, ptr %currentScanLine, align 8
  %call1.i.i.i1 = tail call noundef i32 @pthread_mutex_unlock(ptr noundef nonnull %1) #20
  ret i32 %3
}